; Function Attrs: nounwind uwtable
define hidden void @Curl_auth_cleanup_ntlm(ptr noundef captures(none) initializes((12, 16)) %0) local_unnamed_addr #1 {
  %2 = load ptr, ptr @Curl_cfree, align 8, !tbaa !79
  %3 = getelementptr inbounds nuw i8, ptr %0, i64 16
  %4 = load ptr, ptr %3, align 8, !tbaa !80
  tail call void %2(ptr noundef %4) #8
  store ptr null, ptr %3, align 8, !tbaa !80
  %5 = getelementptr inbounds nuw i8, ptr %0, i64 12
  store i32 0, ptr %5, align 4, !tbaa !81
  ret void
}